target datalayout = "e-m:e-p270:32:32-p271:32:32-p272:64:64-i64:64-i128:128-f80:128-n8:16:32:64-S128"
target triple = "x86_64-pc-linux-gnu"

%struct.SDL_IOStreamInterface = type { i32, ptr, ptr, ptr, ptr, ptr, ptr }
%struct.SDL_IOStream = type { %struct.SDL_IOStreamInterface, ptr, i32, i32 }

; Function Attrs: nounwind uwtable
define hidden zeroext i1 @SDL_CloseIO_REAL(ptr noundef %0) #0 {
  %2 = alloca ptr, align 8
  %3 = alloca i8, align 1
  store ptr %0, ptr %2, align 8
  call void @llvm.lifetime.start.p0(i64 1, ptr %3) #11
  store i8 1, ptr %3, align 1
  %4 = load ptr, ptr %2, align 8
  %5 = icmp ne ptr %4, null
  br i1 %5, label %6, label %27

6:                                                ; preds = %1
  %7 = load ptr, ptr %2, align 8
  %8 = getelementptr inbounds nuw %struct.SDL_IOStream, ptr %7, i32 0, i32 0
  %9 = getelementptr inbounds nuw %struct.SDL_IOStreamInterface, ptr %8, i32 0, i32 6
  %10 = load ptr, ptr %9, align 8
  %11 = icmp ne ptr %10, null
  br i1 %11, label %12, label %22

12:                                               ; preds = %6
  %13 = load ptr, ptr %2, align 8
  %14 = getelementptr inbounds nuw %struct.SDL_IOStream, ptr %13, i32 0, i32 0
  %15 = getelementptr inbounds nuw %struct.SDL_IOStreamInterface, ptr %14, i32 0, i32 6
  %16 = load ptr, ptr %15, align 8
  %17 = load ptr, ptr %2, align 8
  %18 = getelementptr inbounds nuw %struct.SDL_IOStream, ptr %17, i32 0, i32 1
  %19 = load ptr, ptr %18, align 8
  %20 = call zeroext i1 %16(ptr noundef %19)
  %21 = zext i1 %20 to i8
  store i8 %21, ptr %3, align 1
  br label %22

22:                                               ; preds = %12, %6
  %23 = load ptr, ptr %2, align 8
  %24 = getelementptr inbounds nuw %struct.SDL_IOStream, ptr %23, i32 0, i32 3
  %25 = load i32, ptr %24, align 4
  call void @SDL_DestroyProperties_REAL(i32 noundef %25)
  %26 = load ptr, ptr %2, align 8
  call void @SDL_free_REAL(ptr noundef %26)
  br label %27

27:                                               ; preds = %22, %1
  %28 = load i8, ptr %3, align 1, !range !3, !noundef !4
  %29 = trunc i8 %28 to i1
  call void @llvm.lifetime.end.p0(i64 1, ptr %3) #11
  ret i1 %29
}