; Function Attrs: nounwind uwtable
define hidden zeroext i1 @SDL_CloseIO_REAL(ptr noundef %0) local_unnamed_addr #0 {
  %.not = icmp eq ptr %0, null
  br i1 %.not, label %12, label %2

2:                                                ; preds = %1
  %3 = getelementptr inbounds nuw i8, ptr %0, i64 48
  %4 = load ptr, ptr %3, align 8
  %.not8 = icmp eq ptr %4, null
  br i1 %.not8, label %9, label %5

5:                                                ; preds = %2
  %6 = getelementptr inbounds nuw i8, ptr %0, i64 56
  %7 = load ptr, ptr %6, align 8
  %8 = tail call zeroext i1 %4(ptr noundef %7) #18
  br label %9

9:                                                ; preds = %5, %2
  %.1 = phi i1 [ %8, %5 ], [ true, %2 ]
  %10 = getelementptr inbounds nuw i8, ptr %0, i64 68
  %11 = load i32, ptr %10, align 4
  tail call void @SDL_DestroyProperties_REAL(i32 noundef %11) #18
  tail call void @SDL_free_REAL(ptr noundef nonnull %0) #18
  br label %12

12:                                               ; preds = %9, %1
  %.0 = phi i1 [ %.1, %9 ], [ true, %1 ]
  ret i1 %.0
}